; Function Attrs: nounwind uwtable
define ptr @l_Lean_Parser_getSyntaxKindOfParserAlias_x3f(ptr noundef %0, ptr noundef %1) local_unnamed_addr #1 {
  %3 = load ptr, ptr @l_Lean_Parser_registerAlias___closed__2, align 8, !tbaa !9
  %4 = tail call ptr @lean_st_ref_get(ptr noundef %3, ptr noundef %1) #6
  %.val = load i32, ptr %4, align 4, !tbaa !4
  %5 = icmp eq i32 %.val, 1
  %6 = getelementptr inbounds nuw i8, ptr %4, i64 8
  %7 = load ptr, ptr %6, align 8, !tbaa !9
  br i1 %5, label %8, label %19

8:                                                ; preds = %2
  %9 = tail call ptr @l_Lean_RBNode_find___at_Lean_NameMap_find_x3f___spec__1___rarg(ptr noundef %7, ptr noundef %0) #6
  %10 = ptrtoint ptr %7 to i64
  %11 = and i64 %10, 1
  %.not37 = icmp eq i64 %11, 0
  br i1 %.not37, label %12, label %lean_dec.exit26

12:                                               ; preds = %8
  %13 = load i32, ptr %7, align 4, !tbaa !4
  %14 = icmp sgt i32 %13, 1
  br i1 %14, label %15, label %17, !prof !11

15:                                               ; preds = %12
  %16 = add nsw i32 %13, -1
  store i32 %16, ptr %7, align 4, !tbaa !4
  br label %lean_dec.exit26

17:                                               ; preds = %12
  %.not.i = icmp eq i32 %13, 0
  br i1 %.not.i, label %lean_dec.exit26, label %18

18:                                               ; preds = %17
  tail call void @lean_dec_ref_cold(ptr noundef nonnull %7) #6
  br label %lean_dec.exit26

lean_dec.exit26:                                  ; preds = %18, %17, %15, %8
  store ptr %9, ptr %6, align 8, !tbaa !9
  br label %61

19:                                               ; preds = %2
  %20 = getelementptr inbounds nuw i8, ptr %4, i64 16
  %21 = load ptr, ptr %20, align 8, !tbaa !9
  %22 = ptrtoint ptr %21 to i64
  %23 = and i64 %22, 1
  %.not = icmp eq i64 %23, 0
  br i1 %.not, label %24, label %lean_inc.exit24

24:                                               ; preds = %19
  %.val.i = load i32, ptr %21, align 4, !tbaa !4
  %25 = icmp sgt i32 %.val.i, 0
  br i1 %25, label %26, label %28, !prof !11

26:                                               ; preds = %24
  %27 = add nuw i32 %.val.i, 1
  store i32 %27, ptr %21, align 4, !tbaa !4
  br label %lean_inc.exit24

28:                                               ; preds = %24
  %.not.i31 = icmp eq i32 %.val.i, 0
  br i1 %.not.i31, label %lean_inc.exit24, label %29

29:                                               ; preds = %28
  tail call void @lean_inc_ref_cold(ptr noundef nonnull %21) #6
  br label %lean_inc.exit24

lean_inc.exit24:                                  ; preds = %29, %28, %26, %19
  %30 = ptrtoint ptr %7 to i64
  %31 = and i64 %30, 1
  %.not35 = icmp eq i64 %31, 0
  br i1 %.not35, label %32, label %lean_inc.exit

32:                                               ; preds = %lean_inc.exit24
  %.val.i32 = load i32, ptr %7, align 4, !tbaa !4
  %33 = icmp sgt i32 %.val.i32, 0
  br i1 %33, label %34, label %36, !prof !11

34:                                               ; preds = %32
  %35 = add nuw i32 %.val.i32, 1
  store i32 %35, ptr %7, align 4, !tbaa !4
  br label %lean_inc.exit

36:                                               ; preds = %32
  %.not.i33 = icmp eq i32 %.val.i32, 0
  br i1 %.not.i33, label %lean_inc.exit, label %37

37:                                               ; preds = %36
  tail call void @lean_inc_ref_cold(ptr noundef nonnull %7) #6
  br label %lean_inc.exit

lean_inc.exit:                                    ; preds = %37, %36, %34, %lean_inc.exit24
  %38 = ptrtoint ptr %4 to i64
  %39 = and i64 %38, 1
  %.not36 = icmp eq i64 %39, 0
  br i1 %.not36, label %40, label %lean_dec.exit25

40:                                               ; preds = %lean_inc.exit
  %41 = load i32, ptr %4, align 4, !tbaa !4
  %42 = icmp sgt i32 %41, 1
  br i1 %42, label %43, label %45, !prof !11

43:                                               ; preds = %40
  %44 = add nsw i32 %41, -1
  store i32 %44, ptr %4, align 4, !tbaa !4
  br label %lean_dec.exit25

45:                                               ; preds = %40
  %.not.i27 = icmp eq i32 %41, 0
  br i1 %.not.i27, label %lean_dec.exit25, label %46

46:                                               ; preds = %45
  tail call void @lean_dec_ref_cold(ptr noundef nonnull %4) #6
  br label %lean_dec.exit25

lean_dec.exit25:                                  ; preds = %46, %45, %43, %lean_inc.exit
  %47 = tail call ptr @l_Lean_RBNode_find___at_Lean_NameMap_find_x3f___spec__1___rarg(ptr noundef %7, ptr noundef %0) #6
  br i1 %.not35, label %48, label %lean_dec.exit

48:                                               ; preds = %lean_dec.exit25
  %49 = load i32, ptr %7, align 4, !tbaa !4
  %50 = icmp sgt i32 %49, 1
  br i1 %50, label %51, label %53, !prof !11

51:                                               ; preds = %48
  %52 = add nsw i32 %49, -1
  store i32 %52, ptr %7, align 4, !tbaa !4
  br label %lean_dec.exit

53:                                               ; preds = %48
  %.not.i29 = icmp eq i32 %49, 0
  br i1 %.not.i29, label %lean_dec.exit, label %54

54:                                               ; preds = %53
  tail call void @lean_dec_ref_cold(ptr noundef nonnull %7) #6
  br label %lean_dec.exit

lean_dec.exit:                                    ; preds = %54, %53, %51, %lean_dec.exit25
  tail call void @lean_inc_heartbeat() #6
  %55 = tail call noalias ptr @mi_malloc_small(i64 noundef 24) #6
  %56 = icmp eq ptr %55, null
  br i1 %56, label %57, label %lean_alloc_ctor.exit

57:                                               ; preds = %lean_dec.exit
  tail call void @lean_internal_panic_out_of_memory() #7
  unreachable

lean_alloc_ctor.exit:                             ; preds = %lean_dec.exit
  %58 = getelementptr inbounds nuw i8, ptr %55, i64 4
  store i32 1, ptr %55, align 4, !tbaa !4
  store i32 131096, ptr %58, align 4
  %59 = getelementptr inbounds nuw i8, ptr %55, i64 8
  store ptr %47, ptr %59, align 8, !tbaa !9
  %60 = getelementptr inbounds nuw i8, ptr %55, i64 16
  store ptr %21, ptr %60, align 8, !tbaa !9
  br label %61

61:                                               ; preds = %lean_alloc_ctor.exit, %lean_dec.exit26
  %.0 = phi ptr [ %4, %lean_dec.exit26 ], [ %55, %lean_alloc_ctor.exit ]
  ret ptr %.0
}